target datalayout = "e-m:e-p270:32:32-p271:32:32-p272:64:64-i64:64-i128:128-f80:128-n8:16:32:64-S128"
target triple = "x86_64-unknown-linux-gnu"

%struct.itimerval = type { %struct.timeval, %struct.timeval }
%struct.timeval = type { i64, i64 }

; Function Attrs: nounwind uwtable
define dso_local void @watchdogScheduleSignal(i32 noundef %period) #0 {
entry:
  %period.addr = alloca i32, align 4
  %it = alloca %struct.itimerval, align 8
  store i32 %period, ptr %period.addr, align 4
  %0 = load i32, ptr %period.addr, align 4
  %div = sdiv i32 %0, 1000
  %conv = sext i32 %div to i64
  %it_value = getelementptr inbounds %struct.itimerval, ptr %it, i32 0, i32 1
  %tv_sec = getelementptr inbounds %struct.timeval, ptr %it_value, i32 0, i32 0
  store i64 %conv, ptr %tv_sec, align 8
  %1 = load i32, ptr %period.addr, align 4
  %rem = srem i32 %1, 1000
  %mul = mul nsw i32 %rem, 1000
  %conv1 = sext i32 %mul to i64
  %it_value2 = getelementptr inbounds %struct.itimerval, ptr %it, i32 0, i32 1
  %tv_usec = getelementptr inbounds %struct.timeval, ptr %it_value2, i32 0, i32 1
  store i64 %conv1, ptr %tv_usec, align 8
  %it_interval = getelementptr inbounds %struct.itimerval, ptr %it, i32 0, i32 0
  %tv_sec3 = getelementptr inbounds %struct.timeval, ptr %it_interval, i32 0, i32 0
  store i64 0, ptr %tv_sec3, align 8
  %it_interval4 = getelementptr inbounds %struct.itimerval, ptr %it, i32 0, i32 0
  %tv_usec5 = getelementptr inbounds %struct.timeval, ptr %it_interval4, i32 0, i32 1
  store i64 0, ptr %tv_usec5, align 8
  %call = call i32 @setitimer(i32 noundef 0, ptr noundef %it, ptr noundef null) #14
  ret void
}