; Function Attrs: mustprogress nofree nounwind willreturn uwtable
define dso_local void @watchdogScheduleSignal(i32 noundef %period) local_unnamed_addr #19 {
entry:
  %it = alloca %struct.itimerval, align 8
  %div = sdiv i32 %period, 1000
  %conv = sext i32 %div to i64
  %it_value = getelementptr inbounds i8, ptr %it, i64 16
  store i64 %conv, ptr %it_value, align 8
  %rem = srem i32 %period, 1000
  %mul = mul nsw i32 %rem, 1000
  %conv1 = sext i32 %mul to i64
  %tv_usec = getelementptr inbounds i8, ptr %it, i64 24
  store i64 %conv1, ptr %tv_usec, align 8
  call void @llvm.memset.p0.i64(ptr noundef nonnull align 8 dereferenceable(16) %it, i8 0, i64 16, i1 false)
  %call = call i32 @setitimer(i32 noundef 0, ptr noundef nonnull %it, ptr noundef null) #22
  ret void
}